target datalayout = "e-m:e-p270:32:32-p271:32:32-p272:64:64-i64:64-i128:128-f80:128-n8:16:32:64-S128"
target triple = "x86_64-pc-linux-gnu"

%union.pthread_mutex_t = type { %struct.__pthread_mutex_s }
%struct.__pthread_mutex_s = type { i32, i32, i32, i32, i32, i16, i16, %struct.__pthread_internal_list }
%struct.__pthread_internal_list = type { ptr, ptr }

@item_locks = internal global ptr null, align 8
@item_lock_hashpower = internal global i32 0, align 4
@hash = external global ptr, align 8

; Function Attrs: nounwind uwtable
define dso_local void @item_unlock(i32 noundef %0) #0 {
  %2 = alloca i32, align 4
  store i32 %0, ptr %2, align 4, !tbaa !4
  %3 = load ptr, ptr @item_locks, align 8, !tbaa !8
  %4 = load i32, ptr %2, align 4, !tbaa !4
  %5 = zext i32 %4 to i64
  %6 = load i32, ptr @item_lock_hashpower, align 4, !tbaa !4
  %7 = zext i32 %6 to i64
  %8 = shl i64 1, %7
  %9 = sub i64 %8, 1
  %10 = and i64 %5, %9
  %11 = getelementptr inbounds nuw %union.pthread_mutex_t, ptr %3, i64 %10
  %12 = call i32 @pthread_mutex_unlock(ptr noundef %11) #8
  ret void
}

; Function Attrs: nounwind uwtable
define dso_local void @item_lock(i32 noundef %0) #0 {
  %2 = alloca i32, align 4
  store i32 %0, ptr %2, align 4, !tbaa !4
  %3 = load ptr, ptr @item_locks, align 8, !tbaa !8
  %4 = load i32, ptr %2, align 4, !tbaa !4
  %5 = zext i32 %4 to i64
  %6 = load i32, ptr @item_lock_hashpower, align 4, !tbaa !4
  %7 = zext i32 %6 to i64
  %8 = shl i64 1, %7
  %9 = sub i64 %8, 1
  %10 = and i64 %5, %9
  %11 = getelementptr inbounds nuw %union.pthread_mutex_t, ptr %3, i64 %10
  %12 = call i32 @pthread_mutex_lock(ptr noundef %11) #8
  ret void
}

; Function Attrs: nounwind uwtable
define dso_local i32 @add_delta(ptr noundef %0, ptr noundef %1, i64 noundef %2, i1 noundef zeroext %3, i64 noundef %4, ptr noundef %5, ptr noundef %6) #0 {
  %8 = alloca ptr, align 8
  %9 = alloca ptr, align 8
  %10 = alloca i64, align 8
  %11 = alloca i8, align 1
  %12 = alloca i64, align 8
  %13 = alloca ptr, align 8
  %14 = alloca ptr, align 8
  %15 = alloca i32, align 4
  %16 = alloca i32, align 4
  store ptr %0, ptr %8, align 8, !tbaa !8
  store ptr %1, ptr %9, align 8, !tbaa !59
  store i64 %2, ptr %10, align 8, !tbaa !58
  %17 = zext i1 %3 to i8
  store i8 %17, ptr %11, align 1, !tbaa !10
  store i64 %4, ptr %12, align 8, !tbaa !58
  store ptr %5, ptr %13, align 8, !tbaa !59
  store ptr %6, ptr %14, align 8, !tbaa !103
  call void @llvm.lifetime.start.p0(i64 4, ptr %15) #8
  call void @llvm.lifetime.start.p0(i64 4, ptr %16) #8
  %18 = load ptr, ptr @hash, align 8, !tbaa !8
  %19 = load ptr, ptr %9, align 8, !tbaa !59
  %20 = load i64, ptr %10, align 8, !tbaa !58
  %21 = call i32 %18(ptr noundef %19, i64 noundef %20)
  store i32 %21, ptr %16, align 4, !tbaa !4
  %22 = load i32, ptr %16, align 4, !tbaa !4
  call void @item_lock(i32 noundef %22)
  %23 = load ptr, ptr %8, align 8, !tbaa !8
  %24 = load ptr, ptr %9, align 8, !tbaa !59
  %25 = load i64, ptr %10, align 8, !tbaa !58
  %26 = load i8, ptr %11, align 1, !tbaa !10, !range !20, !noundef !21
  %27 = trunc i8 %26 to i1
  %28 = load i64, ptr %12, align 8, !tbaa !58
  %29 = load ptr, ptr %13, align 8, !tbaa !59
  %30 = load ptr, ptr %14, align 8, !tbaa !103
  %31 = load i32, ptr %16, align 4, !tbaa !4
  %32 = call i32 @do_add_delta(ptr noundef %23, ptr noundef %24, i64 noundef %25, i1 noundef zeroext %27, i64 noundef %28, ptr noundef %29, ptr noundef %30, i32 noundef %31, ptr noundef null)
  store i32 %32, ptr %15, align 4, !tbaa !4
  %33 = load i32, ptr %16, align 4, !tbaa !4
  call void @item_unlock(i32 noundef %33)
  %34 = load i32, ptr %15, align 4, !tbaa !4
  call void @llvm.lifetime.end.p0(i64 4, ptr %16) #8
  call void @llvm.lifetime.end.p0(i64 4, ptr %15) #8
  ret i32 %34
}