; Function Attrs: nounwind uwtable
define dso_local i32 @add_delta(ptr noundef %0, ptr noundef %1, i64 noundef %2, i1 noundef zeroext %3, i64 noundef %4, ptr noundef %5, ptr noundef %6) local_unnamed_addr #0 {
  %8 = load ptr, ptr @hash, align 8, !tbaa !4
  %9 = tail call i32 %8(ptr noundef %1, i64 noundef %2) #15
  %10 = load ptr, ptr @item_locks, align 8, !tbaa !4
  %11 = zext i32 %9 to i64
  %12 = load i32, ptr @item_lock_hashpower, align 4, !tbaa !8
  %13 = zext nneg i32 %12 to i64
  %notmask.i = shl nsw i64 -1, %13
  %14 = xor i64 %notmask.i, -1
  %15 = and i64 %14, %11
  %16 = getelementptr inbounds nuw %union.pthread_mutex_t, ptr %10, i64 %15
  %17 = tail call i32 @pthread_mutex_lock(ptr noundef %16) #15
  %18 = tail call i32 @do_add_delta(ptr noundef %0, ptr noundef %1, i64 noundef %2, i1 noundef zeroext %3, i64 noundef %4, ptr noundef %5, ptr noundef %6, i32 noundef %9, ptr noundef null) #15
  %19 = load ptr, ptr @item_locks, align 8, !tbaa !4
  %20 = load i32, ptr @item_lock_hashpower, align 4, !tbaa !8
  %21 = zext nneg i32 %20 to i64
  %notmask.i12 = shl nsw i64 -1, %21
  %22 = xor i64 %notmask.i12, -1
  %23 = and i64 %22, %11
  %24 = getelementptr inbounds nuw %union.pthread_mutex_t, ptr %19, i64 %23
  %25 = tail call i32 @pthread_mutex_unlock(ptr noundef %24) #15
  ret i32 %18
}